; Function Attrs: null_pointer_is_valid sspstrong uwtable
define hidden i32 @srvsvc_dissect_struct_NetConnInfoCtr(ptr noundef %0, i32 noundef %1, ptr noundef %2, ptr noundef %3, ptr noundef %4, ptr noundef %5, i32 noundef %6, i32 %7) local_unnamed_addr #0 {
  %9 = alloca ptr, align 8
  %10 = alloca i32, align 4
  %11 = getelementptr inbounds nuw i8, ptr %4, i64 64
  %12 = load ptr, ptr %11, align 8
  %13 = getelementptr inbounds nuw i8, ptr %12, i64 96
  %14 = load i32, ptr %13, align 8
  %15 = and i32 %14, 1
  %.not = icmp eq i32 %15, 0
  %16 = getelementptr inbounds nuw i8, ptr %4, i64 25
  %17 = load i8, ptr %16, align 1, !range !6, !noundef !7
  %18 = trunc nuw i8 %17 to i1
  br i1 %.not, label %24, label %19

19:                                               ; preds = %8
  %20 = and i32 %1, 7
  %.not41 = icmp eq i32 %20, 0
  %or.cond = or i1 %.not41, %18
  br i1 %or.cond, label %29, label %21

21:                                               ; preds = %19
  %22 = and i32 %1, -8
  %23 = add i32 %22, 8
  br label %29

24:                                               ; preds = %8
  %25 = and i32 %1, 3
  %.not40 = icmp eq i32 %25, 0
  %or.cond45 = or i1 %.not40, %18
  br i1 %or.cond45, label %29, label %26

26:                                               ; preds = %24
  %27 = and i32 %1, -4
  %28 = add i32 %27, 4
  br label %29

29:                                               ; preds = %24, %26, %19, %21
  %.0 = phi i32 [ %1, %19 ], [ %23, %21 ], [ %1, %24 ], [ %28, %26 ]
  %.not42 = icmp eq ptr %3, null
  br i1 %.not42, label %34, label %30

30:                                               ; preds = %29
  %31 = tail call ptr @proto_tree_add_item(ptr noundef nonnull %3, i32 noundef %6, ptr noundef %0, i32 noundef %.0, i32 noundef -1, i32 noundef 0)
  %32 = load i32, ptr @ett_srvsvc_srvsvc_NetConnInfoCtr, align 4
  %33 = tail call ptr @proto_item_add_subtree(ptr noundef %31, i32 noundef %32)
  br label %34

34:                                               ; preds = %30, %29
  %.038 = phi ptr [ %31, %30 ], [ null, %29 ]
  %.037 = phi ptr [ %33, %30 ], [ null, %29 ]
  %35 = load i32, ptr @hf_srvsvc_srvsvc_NetConnInfoCtr_level, align 4
  %36 = tail call i32 @PIDL_dissect_uint32(ptr noundef %0, i32 noundef %.0, ptr noundef %2, ptr noundef %.037, ptr noundef %4, ptr noundef %5, i32 noundef %35, i32 noundef 0)
  %37 = load i32, ptr @hf_srvsvc_srvsvc_NetConnInfoCtr_ctr, align 4
  call void @llvm.lifetime.start.p0(i64 8, ptr nonnull %9) #4
  store ptr null, ptr %9, align 8
  call void @llvm.lifetime.start.p0(i64 4, ptr nonnull %10) #4
  %.not.i.i = icmp eq ptr %.037, null
  br i1 %.not.i.i, label %41, label %38

38:                                               ; preds = %34
  %39 = load i32, ptr @ett_srvsvc_srvsvc_NetConnCtr, align 4
  %40 = call ptr @proto_tree_add_subtree(ptr noundef nonnull %.037, ptr noundef %0, i32 noundef %36, i32 noundef -1, i32 noundef %39, ptr noundef nonnull %9, ptr noundef nonnull @.str.1118)
  br label %41

41:                                               ; preds = %38, %34
  %.033.i.i = phi ptr [ %40, %38 ], [ null, %34 ]
  %42 = call i32 @dissect_ndr_uint32(ptr noundef %0, i32 noundef %36, ptr noundef %2, ptr noundef %.033.i.i, ptr noundef %4, ptr noundef %5, i32 noundef %37, ptr noundef nonnull %10)
  %43 = load ptr, ptr %11, align 8
  %44 = getelementptr inbounds nuw i8, ptr %43, i64 96
  %45 = load i32, ptr %44, align 8
  %46 = and i32 %45, 1
  %.not35.i.i = icmp eq i32 %46, 0
  %47 = getelementptr inbounds nuw i8, ptr %4, i64 25
  %48 = load i8, ptr %47, align 1, !range !6, !noundef !7
  %49 = trunc nuw i8 %48 to i1
  br i1 %.not35.i.i, label %55, label %50

50:                                               ; preds = %41
  %51 = and i32 %42, 7
  %.not37.i.i = icmp eq i32 %51, 0
  %or.cond.i.i = select i1 %49, i1 true, i1 %.not37.i.i
  br i1 %or.cond.i.i, label %60, label %52

52:                                               ; preds = %50
  %53 = and i32 %42, -8
  %54 = add i32 %53, 8
  br label %60

55:                                               ; preds = %41
  %56 = and i32 %42, 3
  %.not36.i.i = icmp eq i32 %56, 0
  %or.cond38.i.i = select i1 %49, i1 true, i1 %.not36.i.i
  br i1 %or.cond38.i.i, label %60, label %57

57:                                               ; preds = %55
  %58 = and i32 %42, -4
  %59 = add i32 %58, 4
  br label %60

60:                                               ; preds = %57, %55, %52, %50
  %.0.i.i = phi i32 [ %42, %50 ], [ %54, %52 ], [ %42, %55 ], [ %59, %57 ]
  %61 = load i32, ptr %10, align 4
  switch i32 %61, label %srvsvc_dissect_element_NetConnInfoCtr_ctr.exit [
    i32 0, label %62
    i32 1, label %65
  ]

62:                                               ; preds = %60
  %63 = load i32, ptr @hf_srvsvc_srvsvc_NetConnCtr_ctr0, align 4
  %64 = call i32 @dissect_ndr_embedded_pointer(ptr noundef %0, i32 noundef %.0.i.i, ptr noundef %2, ptr noundef %.033.i.i, ptr noundef %4, ptr noundef %5, ptr noundef nonnull @srvsvc_dissect_element_NetConnCtr_ctr0_, i32 noundef 2, ptr noundef nonnull @.str.1119, i32 noundef %63)
  br label %srvsvc_dissect_element_NetConnInfoCtr_ctr.exit

65:                                               ; preds = %60
  %66 = load i32, ptr @hf_srvsvc_srvsvc_NetConnCtr_ctr1, align 4
  %67 = call i32 @dissect_ndr_embedded_pointer(ptr noundef %0, i32 noundef %.0.i.i, ptr noundef %2, ptr noundef %.033.i.i, ptr noundef %4, ptr noundef %5, ptr noundef nonnull @srvsvc_dissect_element_NetConnCtr_ctr1_, i32 noundef 2, ptr noundef nonnull @.str.1120, i32 noundef %66)
  br label %srvsvc_dissect_element_NetConnInfoCtr_ctr.exit

srvsvc_dissect_element_NetConnInfoCtr_ctr.exit:   ; preds = %60, %62, %65
  %.1.i.i = phi i32 [ %.0.i.i, %60 ], [ %67, %65 ], [ %64, %62 ]
  %68 = load ptr, ptr %9, align 8
  %69 = sub i32 %.1.i.i, %36
  call void @proto_item_set_len(ptr noundef %68, i32 noundef %69)
  call void @llvm.lifetime.end.p0(i64 4, ptr nonnull %10) #4
  call void @llvm.lifetime.end.p0(i64 8, ptr nonnull %9) #4
  %70 = sub i32 %.1.i.i, %.0
  call void @proto_item_set_len(ptr noundef %.038, i32 noundef %70)
  %71 = load ptr, ptr %11, align 8
  %72 = getelementptr inbounds nuw i8, ptr %71, i64 96
  %73 = load i32, ptr %72, align 8
  %74 = and i32 %73, 1
  %.not43 = icmp eq i32 %74, 0
  br i1 %.not43, label %82, label %75

75:                                               ; preds = %srvsvc_dissect_element_NetConnInfoCtr_ctr.exit
  %76 = load i8, ptr %47, align 1, !range !6, !noundef !7
  %77 = trunc nuw i8 %76 to i1
  %78 = and i32 %.1.i.i, 7
  %.not44 = icmp eq i32 %78, 0
  %or.cond46 = or i1 %.not44, %77
  br i1 %or.cond46, label %82, label %79

79:                                               ; preds = %75
  %80 = and i32 %.1.i.i, -8
  %81 = add i32 %80, 8
  br label %82

82:                                               ; preds = %79, %75, %srvsvc_dissect_element_NetConnInfoCtr_ctr.exit
  %.1 = phi i32 [ %.1.i.i, %75 ], [ %81, %79 ], [ %.1.i.i, %srvsvc_dissect_element_NetConnInfoCtr_ctr.exit ]
  ret i32 %.1
}